target datalayout = "e-m:e-p270:32:32-p271:32:32-p272:64:64-i64:64-i128:128-f80:128-n8:16:32:64-S128"
target triple = "x86_64-pc-linux-gnu"

%struct.avifScalingMode = type { %struct.avifFraction, %struct.avifFraction }
%struct.avifFraction = type { i32, i32 }
%struct.avifRWData = type { ptr, i64 }
%struct.avifEncoder = type { i32, i32, i32, i32, i64, i32, i32, i32, i32, i32, i32, i32, i32, i32, i32, i32, %struct.avifScalingMode, %struct.avifIOStats, %struct.avifDiagnostics, ptr, ptr, i32 }
%struct.avifIOStats = type { i64, i64 }
%struct.avifDiagnostics = type { [256 x i8] }
%struct.avifEncoderData = type { %struct.avifEncoderItemArray, %struct.avifEncoderFrameArray, i32, i32, i32, i32, %struct.avifEncoder, i32, i32, i32, i32, ptr, i16, i16, %struct.avifEncoderItemIdArray, i32, i32, i64, ptr, ptr }
%struct.avifEncoderItemArray = type { ptr, i32, i32, i32 }
%struct.avifEncoderFrameArray = type { ptr, i32, i32, i32 }
%struct.avifEncoderItemIdArray = type { ptr, i32, i32, i32 }
%struct.avifEncoderItem = type { i16, [4 x i8], ptr, ptr, %struct.avifRWData, %struct.avifCodecConfigurationBox, i32, i32, i32, ptr, i64, ptr, i64, %struct.avifOffsetFixupArray, i16, ptr, i32, i32, i32, i32, i32, i16, %struct.ipmaArray }
%struct.avifCodecConfigurationBox = type { i8, i8, i8, i8, i8, i8, i8, i8, i8 }
%struct.avifOffsetFixupArray = type { ptr, i32, i32, i32 }
%struct.ipmaArray = type { [16 x i8], [16 x i32], i8 }

@.str.60 = private unnamed_addr constant [5 x i8] c"Exif\00", align 1
@.str.61 = private unnamed_addr constant [5 x i8] c"cdsc\00", align 1

; Function Attrs: nounwind uwtable
define internal i32 @avifEncoderDataCreateExifItem(ptr noundef %0, ptr noundef %1) #0 {
  %3 = alloca i32, align 4
  %4 = alloca ptr, align 8
  %5 = alloca ptr, align 8
  %6 = alloca i64, align 8
  %7 = alloca i32, align 4
  %8 = alloca ptr, align 8
  %9 = alloca i32, align 4
  %10 = alloca i32, align 4
  store ptr %0, ptr %4, align 8
  store ptr %1, ptr %5, align 8
  %11 = load ptr, ptr %5, align 8
  %12 = getelementptr inbounds nuw %struct.avifRWData, ptr %11, i32 0, i32 0
  %13 = load ptr, ptr %12, align 8
  %14 = load ptr, ptr %5, align 8
  %15 = getelementptr inbounds nuw %struct.avifRWData, ptr %14, i32 0, i32 1
  %16 = load i64, ptr %15, align 8
  %17 = call i32 @avifGetExifTiffHeaderOffset(ptr noundef %13, i64 noundef %16, ptr noundef %6)
  store i32 %17, ptr %7, align 4
  %18 = load i32, ptr %7, align 4
  %19 = icmp ne i32 %18, 0
  br i1 %19, label %20, label %22

20:                                               ; preds = %2
  %21 = load i32, ptr %7, align 4
  store i32 %21, ptr %3, align 4
  br label %68

22:                                               ; preds = %2
  %23 = load ptr, ptr %4, align 8
  %24 = call ptr @avifEncoderDataCreateItem(ptr noundef %23, ptr noundef @.str.60, ptr noundef @.str.60, i64 noundef 5, i32 noundef 0)
  store ptr %24, ptr %8, align 8
  %25 = load ptr, ptr %8, align 8
  %26 = icmp ne ptr %25, null
  br i1 %26, label %28, label %27

27:                                               ; preds = %22
  store i32 26, ptr %3, align 4
  br label %68

28:                                               ; preds = %22
  %29 = load ptr, ptr %4, align 8
  %30 = getelementptr inbounds nuw %struct.avifEncoderData, ptr %29, i32 0, i32 13
  %31 = load i16, ptr %30, align 2
  %32 = load ptr, ptr %8, align 8
  %33 = getelementptr inbounds nuw %struct.avifEncoderItem, ptr %32, i32 0, i32 14
  store i16 %31, ptr %33, align 8
  %34 = load ptr, ptr %8, align 8
  %35 = getelementptr inbounds nuw %struct.avifEncoderItem, ptr %34, i32 0, i32 15
  store ptr @.str.61, ptr %35, align 8
  %36 = load i64, ptr %6, align 8
  %37 = trunc i64 %36 to i32
  %38 = call i32 @avifHTONL(i32 noundef %37)
  store i32 %38, ptr %9, align 4
  br label %39

39:                                               ; preds = %28
  %40 = load ptr, ptr %8, align 8
  %41 = getelementptr inbounds nuw %struct.avifEncoderItem, ptr %40, i32 0, i32 4
  %42 = load ptr, ptr %5, align 8
  %43 = getelementptr inbounds nuw %struct.avifRWData, ptr %42, i32 0, i32 1
  %44 = load i64, ptr %43, align 8
  %45 = add i64 4, %44
  %46 = call i32 @avifRWDataRealloc(ptr noundef %41, i64 noundef %45)
  store i32 %46, ptr %10, align 4
  %47 = load i32, ptr %10, align 4
  %48 = icmp ne i32 %47, 0
  br i1 %48, label %49, label %51

49:                                               ; preds = %39
  %50 = load i32, ptr %10, align 4
  store i32 %50, ptr %3, align 4
  br label %68

51:                                               ; preds = %39
  br label %52

52:                                               ; preds = %51
  %53 = load ptr, ptr %8, align 8
  %54 = getelementptr inbounds nuw %struct.avifEncoderItem, ptr %53, i32 0, i32 4
  %55 = getelementptr inbounds nuw %struct.avifRWData, ptr %54, i32 0, i32 0
  %56 = load ptr, ptr %55, align 8
  call void @llvm.memcpy.p0.p0.i64(ptr align 1 %56, ptr align 4 %9, i64 4, i1 false)
  %57 = load ptr, ptr %8, align 8
  %58 = getelementptr inbounds nuw %struct.avifEncoderItem, ptr %57, i32 0, i32 4
  %59 = getelementptr inbounds nuw %struct.avifRWData, ptr %58, i32 0, i32 0
  %60 = load ptr, ptr %59, align 8
  %61 = getelementptr inbounds i8, ptr %60, i64 4
  %62 = load ptr, ptr %5, align 8
  %63 = getelementptr inbounds nuw %struct.avifRWData, ptr %62, i32 0, i32 0
  %64 = load ptr, ptr %63, align 8
  %65 = load ptr, ptr %5, align 8
  %66 = getelementptr inbounds nuw %struct.avifRWData, ptr %65, i32 0, i32 1
  %67 = load i64, ptr %66, align 8
  call void @llvm.memcpy.p0.p0.i64(ptr align 1 %61, ptr align 1 %64, i64 %67, i1 false)
  store i32 0, ptr %3, align 4
  br label %68

68:                                               ; preds = %52, %49, %27, %20
  %69 = load i32, ptr %3, align 4
  ret i32 %69
}