; Function Attrs: nounwind uwtable
define internal fastcc i32 @avifEncoderDataCreateExifItem(ptr noundef %0, ptr nocapture noundef readonly %1) unnamed_addr #1 {
  %3 = alloca i64, align 8
  %4 = load ptr, ptr %1, align 8
  %5 = getelementptr inbounds nuw i8, ptr %1, i64 8
  %6 = load i64, ptr %5, align 8
  %7 = call i32 @avifGetExifTiffHeaderOffset(ptr noundef %4, i64 noundef %6, ptr noundef nonnull %3) #13
  %.not = icmp eq i32 %7, 0
  br i1 %.not, label %8, label %28

8:                                                ; preds = %2
  %9 = call fastcc ptr @avifEncoderDataCreateItem(ptr noundef %0, ptr noundef nonnull @.str.60, ptr noundef nonnull @.str.60, i64 noundef 5, i32 noundef 0)
  %.not20 = icmp eq ptr %9, null
  br i1 %.not20, label %28, label %10

10:                                               ; preds = %8
  %11 = getelementptr inbounds nuw i8, ptr %0, i64 474
  %12 = load i16, ptr %11, align 2
  %13 = getelementptr inbounds nuw i8, ptr %9, i64 120
  store i16 %12, ptr %13, align 8
  %14 = getelementptr inbounds nuw i8, ptr %9, i64 128
  store ptr @.str.61, ptr %14, align 8
  %15 = load i64, ptr %3, align 8
  %16 = trunc i64 %15 to i32
  %17 = call i32 @avifHTONL(i32 noundef %16) #13
  %18 = getelementptr inbounds nuw i8, ptr %9, i64 24
  %19 = load i64, ptr %5, align 8
  %20 = add i64 %19, 4
  %21 = call i32 @avifRWDataRealloc(ptr noundef nonnull %18, i64 noundef %20) #13
  %.not21 = icmp eq i32 %21, 0
  br i1 %.not21, label %22, label %28

22:                                               ; preds = %10
  %23 = load ptr, ptr %18, align 8
  store i32 %17, ptr %23, align 1
  %24 = load ptr, ptr %18, align 8
  %25 = getelementptr inbounds i8, ptr %24, i64 4
  %26 = load ptr, ptr %1, align 8
  %27 = load i64, ptr %5, align 8
  call void @llvm.memcpy.p0.p0.i64(ptr nonnull align 1 %25, ptr align 1 %26, i64 %27, i1 false)
  br label %28

28:                                               ; preds = %10, %8, %2, %22
  %.0 = phi i32 [ 0, %22 ], [ %7, %2 ], [ 26, %8 ], [ %21, %10 ]
  ret i32 %.0
}